target datalayout = "e-m:e-p270:32:32-p271:32:32-p272:64:64-i64:64-i128:128-f80:128-n8:16:32:64-S128"
target triple = "x86_64-pc-linux-gnu"

%struct.point_t = type { float, float }
%struct.dt_lut_t = type { ptr, ptr, ptr, ptr, ptr, ptr, ptr, ptr, ptr, ptr, ptr, ptr, ptr, ptr, ptr, ptr, ptr, %struct.image_t, %struct.image_t, ptr, ptr, ptr, ptr, ptr }
%struct.image_t = type { ptr, ptr, ptr, i32, i32, ptr, float, i32, i32, float, [4 x %struct.point_t], ptr, i32 }
%struct.chart_t = type { ptr, ptr, ptr, ptr, float, float, float, float }

@.str.109 = private unnamed_addr constant [2 x i8] c"/\00", align 1

; Function Attrs: nounwind uwtable
define internal ptr @get_filename_base(ptr noundef %0) #0 {
  %2 = alloca ptr, align 8
  %3 = alloca ptr, align 8
  %4 = alloca ptr, align 8
  %5 = alloca i32, align 4
  store ptr %0, ptr %3, align 8, !tbaa !29
  call void @llvm.lifetime.start.p0(i64 8, ptr %4) #15
  %6 = load ptr, ptr %3, align 8, !tbaa !29
  %7 = call ptr @g_strrstr(ptr noundef %6, ptr noundef @.str.109)
  store ptr %7, ptr %4, align 8, !tbaa !29
  %8 = load ptr, ptr %4, align 8, !tbaa !29
  %9 = icmp ne ptr %8, null
  br i1 %9, label %10, label %14

10:                                               ; preds = %1
  %11 = load ptr, ptr %4, align 8, !tbaa !29
  %12 = getelementptr inbounds i8, ptr %11, i64 1
  %13 = call noalias ptr @g_strdup(ptr noundef %12)
  store ptr %13, ptr %2, align 8
  store i32 1, ptr %5, align 4
  br label %17

14:                                               ; preds = %1
  %15 = load ptr, ptr %3, align 8, !tbaa !29
  %16 = call noalias ptr @g_strdup(ptr noundef %15)
  store ptr %16, ptr %2, align 8
  store i32 1, ptr %5, align 4
  br label %17

17:                                               ; preds = %14, %10
  call void @llvm.lifetime.end.p0(i64 8, ptr %4) #15
  %18 = load ptr, ptr %2, align 8
  ret ptr %18
}

; Function Attrs: nounwind uwtable
define internal void @collect_source_patches(ptr noundef %0) #0 {
  %2 = alloca ptr, align 8
  store ptr %0, ptr %2, align 8, !tbaa !14
  %3 = load ptr, ptr %2, align 8, !tbaa !14
  %4 = getelementptr inbounds nuw %struct.dt_lut_t, ptr %3, i32 0, i32 20
  %5 = load ptr, ptr %4, align 8, !tbaa !31
  %6 = icmp ne ptr %5, null
  br i1 %6, label %7, label %14

7:                                                ; preds = %1
  %8 = load ptr, ptr %2, align 8, !tbaa !14
  %9 = getelementptr inbounds nuw %struct.dt_lut_t, ptr %8, i32 0, i32 20
  %10 = load ptr, ptr %9, align 8, !tbaa !31
  %11 = getelementptr inbounds nuw %struct.chart_t, ptr %10, i32 0, i32 2
  %12 = load ptr, ptr %11, align 8, !tbaa !124
  %13 = load ptr, ptr %2, align 8, !tbaa !14
  call void @g_hash_table_foreach(ptr noundef %12, ptr noundef @collect_source_patches_foreach, ptr noundef %13)
  br label %14

14:                                               ; preds = %7, %1
  ret void
}

; Function Attrs: nounwind uwtable
define internal i32 @open_it8(ptr noundef %0, ptr noundef %1) #0 {
  %3 = alloca i32, align 4
  %4 = alloca ptr, align 8
  %5 = alloca ptr, align 8
  %6 = alloca i32, align 4
  store ptr %0, ptr %4, align 8, !tbaa !14
  store ptr %1, ptr %5, align 8, !tbaa !29
  %7 = load ptr, ptr %4, align 8, !tbaa !14
  %8 = getelementptr inbounds nuw %struct.dt_lut_t, ptr %7, i32 0, i32 20
  %9 = load ptr, ptr %8, align 8, !tbaa !31
  %10 = icmp ne ptr %9, null
  br i1 %10, label %11, label %14

11:                                               ; preds = %2
  %12 = load ptr, ptr %5, align 8, !tbaa !29
  %13 = icmp ne ptr %12, null
  br i1 %13, label %15, label %14

14:                                               ; preds = %11, %2
  store i32 0, ptr %3, align 4
  br label %57

15:                                               ; preds = %11
  call void @llvm.lifetime.start.p0(i64 4, ptr %6) #15
  %16 = load ptr, ptr %5, align 8, !tbaa !29
  %17 = load ptr, ptr %4, align 8, !tbaa !14
  %18 = getelementptr inbounds nuw %struct.dt_lut_t, ptr %17, i32 0, i32 20
  %19 = load ptr, ptr %18, align 8, !tbaa !31
  %20 = call i32 @parse_it8(ptr noundef %16, ptr noundef %19)
  store i32 %20, ptr %6, align 4, !tbaa !7
  %21 = load ptr, ptr %4, align 8, !tbaa !14
  call void @collect_source_patches(ptr noundef %21)
  %22 = load ptr, ptr %4, align 8, !tbaa !14
  call void @update_table(ptr noundef %22)
  %23 = load ptr, ptr %4, align 8, !tbaa !14
  %24 = getelementptr inbounds nuw %struct.dt_lut_t, ptr %23, i32 0, i32 7
  %25 = load ptr, ptr %24, align 8, !tbaa !43
  call void @gtk_widget_set_sensitive(ptr noundef %25, i32 noundef 0)
  %26 = load ptr, ptr %4, align 8, !tbaa !14
  %27 = getelementptr inbounds nuw %struct.dt_lut_t, ptr %26, i32 0, i32 8
  %28 = load ptr, ptr %27, align 8, !tbaa !44
  call void @gtk_widget_set_sensitive(ptr noundef %28, i32 noundef 0)
  %29 = load ptr, ptr %4, align 8, !tbaa !14
  %30 = getelementptr inbounds nuw %struct.dt_lut_t, ptr %29, i32 0, i32 9
  %31 = load ptr, ptr %30, align 8, !tbaa !45
  call void @gtk_widget_set_sensitive(ptr noundef %31, i32 noundef 0)
  %32 = load i32, ptr %6, align 4, !tbaa !7
  %33 = icmp ne i32 %32, 0
  br i1 %33, label %40, label %34

34:                                               ; preds = %15
  %35 = load ptr, ptr %4, align 8, !tbaa !14
  %36 = getelementptr inbounds nuw %struct.dt_lut_t, ptr %35, i32 0, i32 3
  %37 = load ptr, ptr %36, align 8, !tbaa !41
  %38 = call i64 @gtk_file_chooser_get_type() #18
  %39 = call ptr @g_type_check_instance_cast(ptr noundef %37, i64 noundef %38)
  call void @gtk_file_chooser_unselect_all(ptr noundef %39)
  br label %51

40:                                               ; preds = %15
  %41 = load ptr, ptr %4, align 8, !tbaa !14
  %42 = getelementptr inbounds nuw %struct.dt_lut_t, ptr %41, i32 0, i32 19
  %43 = load ptr, ptr %42, align 8, !tbaa !85
  call void @free(ptr noundef %43) #15
  %44 = load ptr, ptr %5, align 8, !tbaa !29
  %45 = call ptr @get_filename_base(ptr noundef %44)
  %46 = load ptr, ptr %4, align 8, !tbaa !14
  %47 = getelementptr inbounds nuw %struct.dt_lut_t, ptr %46, i32 0, i32 19
  store ptr %45, ptr %47, align 8, !tbaa !85
  %48 = load ptr, ptr %4, align 8, !tbaa !14
  %49 = getelementptr inbounds nuw %struct.dt_lut_t, ptr %48, i32 0, i32 7
  %50 = load ptr, ptr %49, align 8, !tbaa !43
  call void @gtk_widget_set_sensitive(ptr noundef %50, i32 noundef 1)
  br label %51

51:                                               ; preds = %40, %34
  %52 = load ptr, ptr %4, align 8, !tbaa !14
  %53 = getelementptr inbounds nuw %struct.dt_lut_t, ptr %52, i32 0, i32 17
  %54 = getelementptr inbounds nuw %struct.image_t, ptr %53, i32 0, i32 0
  %55 = load ptr, ptr %54, align 8, !tbaa !76
  call void @gtk_widget_queue_draw(ptr noundef %55)
  %56 = load i32, ptr %6, align 4, !tbaa !7
  store i32 %56, ptr %3, align 4
  call void @llvm.lifetime.end.p0(i64 4, ptr %6) #15
  br label %57

57:                                               ; preds = %51, %14
  %58 = load i32, ptr %3, align 4
  ret i32 %58
}