; Function Attrs: nounwind uwtable
define internal fastcc i32 @open_it8(ptr noundef %0, ptr noundef %1) unnamed_addr #0 {
  %3 = getelementptr inbounds nuw i8, ptr %0, i64 352
  %4 = load ptr, ptr %3, align 8, !tbaa !64
  %5 = icmp ne ptr %4, null
  %6 = icmp ne ptr %1, null
  %or.cond = and i1 %6, %5
  br i1 %or.cond, label %7, label %34

7:                                                ; preds = %2
  %8 = tail call i32 @parse_it8(ptr noundef nonnull %1, ptr noundef nonnull %4) #24
  %9 = load ptr, ptr %3, align 8, !tbaa !64
  %.not.i = icmp eq ptr %9, null
  br i1 %.not.i, label %collect_source_patches.exit, label %10

10:                                               ; preds = %7
  %11 = getelementptr inbounds nuw i8, ptr %9, i64 16
  %12 = load ptr, ptr %11, align 8, !tbaa !75
  tail call void @g_hash_table_foreach(ptr noundef %12, ptr noundef nonnull @collect_source_patches_foreach, ptr noundef nonnull %0) #24
  br label %collect_source_patches.exit

collect_source_patches.exit:                      ; preds = %7, %10
  tail call fastcc void @update_table(ptr noundef nonnull %0)
  %13 = getelementptr inbounds nuw i8, ptr %0, i64 56
  %14 = load ptr, ptr %13, align 8, !tbaa !53
  tail call void @gtk_widget_set_sensitive(ptr noundef %14, i32 noundef 0) #24
  %15 = getelementptr inbounds nuw i8, ptr %0, i64 64
  %16 = load ptr, ptr %15, align 8, !tbaa !54
  tail call void @gtk_widget_set_sensitive(ptr noundef %16, i32 noundef 0) #24
  %17 = getelementptr inbounds nuw i8, ptr %0, i64 72
  %18 = load ptr, ptr %17, align 8, !tbaa !55
  tail call void @gtk_widget_set_sensitive(ptr noundef %18, i32 noundef 0) #24
  %.not = icmp eq i32 %8, 0
  br i1 %.not, label %19, label %24

19:                                               ; preds = %collect_source_patches.exit
  %20 = getelementptr inbounds nuw i8, ptr %0, i64 24
  %21 = load ptr, ptr %20, align 8, !tbaa !46
  %22 = tail call i64 @gtk_file_chooser_get_type() #28
  %23 = tail call ptr @g_type_check_instance_cast(ptr noundef %21, i64 noundef %22) #24
  tail call void @gtk_file_chooser_unselect_all(ptr noundef %23) #24
  br label %31

24:                                               ; preds = %collect_source_patches.exit
  %25 = getelementptr inbounds nuw i8, ptr %0, i64 344
  %26 = load ptr, ptr %25, align 8, !tbaa !81
  tail call void @free(ptr noundef %26) #24
  %27 = tail call ptr @g_strrstr(ptr noundef nonnull %1, ptr noundef nonnull @.str.109) #24
  %.not.i20 = icmp eq ptr %27, null
  %28 = getelementptr inbounds nuw i8, ptr %27, i64 1
  %.sink.i = select i1 %.not.i20, ptr %1, ptr %28
  %29 = tail call noalias ptr @g_strdup(ptr noundef nonnull %.sink.i) #24
  store ptr %29, ptr %25, align 8, !tbaa !81
  %30 = load ptr, ptr %13, align 8, !tbaa !53
  tail call void @gtk_widget_set_sensitive(ptr noundef %30, i32 noundef 1) #24
  br label %31

31:                                               ; preds = %24, %19
  %32 = getelementptr inbounds nuw i8, ptr %0, i64 136
  %33 = load ptr, ptr %32, align 8, !tbaa !39
  tail call void @gtk_widget_queue_draw(ptr noundef %33) #24
  br label %34

34:                                               ; preds = %2, %31
  %.0 = phi i32 [ %8, %31 ], [ 0, %2 ]
  ret i32 %.0
}